(dp0
S'AA'
p1
F0.041504539559014265
sS'AW'
p2
F0.03309481216457961
sS'DH'
p3
F0.09116693679092383
sS'AY'
p4
F0.01802849665600465
sS'HH'
p5
F0.13330300272975432
sS'CH'
p6
F0.024778761061946902
sS'JH'
p7
F0.031496062992125984
sS'ZH'
p8
F0.03333333333333333
sS'EH'
p9
F0.034288926363125354
sS'NG'
p10
F0.023601847101077475
sS'TH'
p11
F0.029399585921325053
sS'IY'
p12
F0.030020220874163946
sS'B'
p13
F0.047961630695443645
sS'AE'
p14
F0.0449419002050581
sS'D'
p15
F0.11559673505404809
sS'G'
p16
F0.03879310344827586
sS'F'
p17
F0.036036036036036036
sS'AH'
p18
F0.04377776347131913
sS'K'
p19
F0.02795739825028528
sS'M'
p20
F0.03345791066025983
sS'L'
p21
F0.03144171779141104
sS'AO'
p22
F0.0554280091833388
sS'N'
p23
F0.032506726783506655
sS'IH'
p24
F0.04513206256945038
sS'S'
p25
F0.029138808502145494
sS'R'
p26
F0.04143039000115727
sS'EY'
p27
F0.028130671506352088
sS'T'
p28
F0.07504887953075651
sS'W'
p29
F0.03916386352715041
sS'V'
p30
F0.06663339156476167
sS'Y'
p31
F0.138268156424581
sS'Z'
p32
F0.034594594594594595
sS'ER'
p33
F0.018215690333264336
sS'<SPACE>'
p34
F0.042757626711506125
sS'P'
p35
F0.025386313465783666
sS'UW'
p36
F0.050963597430406855
sS'SH'
p37
F0.006365372374283896
sS'UH'
p38
F0.1108786610878661
sS'OY'
p39
F0.021621621621621623
sS'OW'
p40
F0.04041720990873533
s.