(dp0
S'AA'
p1
F0.029182879377431907
sS'AW'
p2
F0.014311270125223614
sS'DH'
p3
F0.05632090761750405
sS'AY'
p4
F0.00756033730735679
sS'HH'
p5
F0.0705186533212011
sS'CH'
p6
F0.01504424778761062
sS'JH'
p7
F0.01124859392575928
sS'EH'
p8
F0.02473299606520517
sS'NG'
p9
F0.013853258081067214
sS'TH'
p10
F0.02194616977225673
sS'IY'
p11
F0.020998600093327113
sS'B'
p12
F0.02787769784172662
sS'AE'
p13
F0.02546138072453862
sS'D'
p14
F0.06551952349437459
sS'G'
p15
F0.013546798029556651
sS'F'
p16
F0.018862612612612614
sS'AH'
p17
F0.03141698319706431
sS'K'
p18
F0.018067706352225182
sS'M'
p19
F0.016906922940024917
sS'L'
p20
F0.02530674846625767
sS'AO'
p21
F0.03181370941292227
sS'N'
p22
F0.01948949167333285
sS'IH'
p23
F0.024873920847935722
sS'S'
p24
F0.023450753417822573
sS'R'
p25
F0.018169193380395788
sS'EY'
p26
F0.01603145795523291
sS'T'
p27
F0.03872762821476914
sS'W'
p28
F0.032436328688130706
sS'V'
p29
F0.031195408035937112
sS'Y'
p30
F0.046089385474860335
sS'Z'
p31
F0.025297297297297298
sS'ER'
p32
F0.0103498240529911
sS'<SPACE>'
p33
F0.04582032188325726
sS'P'
p34
F0.011037527593818985
sS'UW'
p35
F0.020556745182012847
sS'SH'
p36
F0.008274984086569064
sS'UH'
p37
F0.0198744769874477
sS'OW'
p38
F0.026597131681877443
s.